; Function Attrs: mustprogress nounwind uwtable
define internal fastcc noundef i32 @_ZL15selectFPConvOpcjN4llvm3LLTES0_(i32 noundef %0, i64 %1, i64 %2) unnamed_addr #0 {
  %4 = alloca %"class.llvm::TypeSize", align 8
  %5 = alloca %"class.llvm::TypeSize", align 8
  %6 = and i64 %1, 1
  %7 = icmp ne i64 %6, 0
  %8 = and i64 %2, 1
  %9 = icmp ne i64 %8, 0
  %or.cond = select i1 %7, i1 %9, i1 false
  br i1 %or.cond, label %_ZNK4llvm3LLT13getSizeInBitsEv.exit38, label %30

_ZNK4llvm3LLT13getSizeInBitsEv.exit38:            ; preds = %3
  %10 = lshr i64 %1, 3
  %.sroa.012.0.i = and i64 %10, 4294967295
  store i64 %.sroa.012.0.i, ptr %4, align 8
  %.sroa.25.0..sroa_idx = getelementptr inbounds i8, ptr %4, i64 8
  store i8 0, ptr %.sroa.25.0..sroa_idx, align 8
  %11 = call noundef i64 @_ZNK4llvm8TypeSizecvmEv(ptr noundef nonnull align 8 dereferenceable(9) %4) #24
  %12 = trunc i64 %11 to i32
  %13 = lshr i64 %2, 3
  %.sroa.012.0.i32 = and i64 %13, 4294967295
  store i64 %.sroa.012.0.i32, ptr %5, align 8
  %.sroa.2.0..sroa_idx = getelementptr inbounds i8, ptr %5, i64 8
  store i8 0, ptr %.sroa.2.0..sroa_idx, align 8
  %14 = call noundef i64 @_ZNK4llvm8TypeSizecvmEv(ptr noundef nonnull align 8 dereferenceable(9) %5) #24
  %15 = trunc i64 %14 to i32
  switch i32 %12, label %30 [
    i32 32, label %16
    i32 64, label %21
  ]

16:                                               ; preds = %_ZNK4llvm3LLT13getSizeInBitsEv.exit38
  switch i32 %15, label %30 [
    i32 32, label %17
    i32 64, label %19
  ]

17:                                               ; preds = %16
  %switch.tableidx = add i32 %0, -193
  %18 = icmp ult i32 %switch.tableidx, 4
  br i1 %18, label %switch.lookup, label %30

19:                                               ; preds = %16
  %switch.tableidx44 = add i32 %0, -193
  %20 = icmp ult i32 %switch.tableidx44, 4
  br i1 %20, label %switch.lookup43, label %30

21:                                               ; preds = %_ZNK4llvm3LLT13getSizeInBitsEv.exit38
  switch i32 %15, label %30 [
    i32 32, label %22
    i32 64, label %24
  ]

22:                                               ; preds = %21
  %switch.tableidx48 = add i32 %0, -193
  %23 = icmp ult i32 %switch.tableidx48, 4
  br i1 %23, label %switch.lookup47, label %30

24:                                               ; preds = %21
  %switch.tableidx52 = add i32 %0, -193
  %25 = icmp ult i32 %switch.tableidx52, 4
  br i1 %25, label %switch.lookup51, label %30

switch.lookup:                                    ; preds = %17
  %26 = zext nneg i32 %switch.tableidx to i64
  %switch.gep = getelementptr inbounds [4 x i32], ptr @switch.table._ZL15selectFPConvOpcjN4llvm3LLTES0_, i64 0, i64 %26
  br label %.sink.split

switch.lookup43:                                  ; preds = %19
  %27 = zext nneg i32 %switch.tableidx44 to i64
  %switch.gep45 = getelementptr inbounds [4 x i32], ptr @switch.table._ZL15selectFPConvOpcjN4llvm3LLTES0_.379, i64 0, i64 %27
  br label %.sink.split

switch.lookup47:                                  ; preds = %22
  %28 = zext nneg i32 %switch.tableidx48 to i64
  %switch.gep49 = getelementptr inbounds [4 x i32], ptr @switch.table._ZL15selectFPConvOpcjN4llvm3LLTES0_.380, i64 0, i64 %28
  br label %.sink.split

switch.lookup51:                                  ; preds = %24
  %29 = zext nneg i32 %switch.tableidx52 to i64
  %switch.gep53 = getelementptr inbounds [4 x i32], ptr @switch.table._ZL15selectFPConvOpcjN4llvm3LLTES0_.381, i64 0, i64 %29
  br label %.sink.split

.sink.split:                                      ; preds = %switch.lookup, %switch.lookup43, %switch.lookup47, %switch.lookup51
  %switch.gep53.sink = phi ptr [ %switch.gep53, %switch.lookup51 ], [ %switch.gep49, %switch.lookup47 ], [ %switch.gep45, %switch.lookup43 ], [ %switch.gep, %switch.lookup ]
  %switch.load54 = load i32, ptr %switch.gep53.sink, align 4
  br label %30

30:                                               ; preds = %.sink.split, %24, %22, %19, %17, %_ZNK4llvm3LLT13getSizeInBitsEv.exit38, %21, %16, %3
  %.0 = phi i32 [ %0, %3 ], [ %0, %16 ], [ %0, %21 ], [ %0, %_ZNK4llvm3LLT13getSizeInBitsEv.exit38 ], [ %0, %17 ], [ %0, %19 ], [ %0, %22 ], [ %0, %24 ], [ %switch.load54, %.sink.split ]
  ret i32 %.0
}